; Function Attrs: mustprogress uwtable
define hidden void @_ZN3smt14theory_wmaxsat13init_min_costERK8rational(ptr noundef nonnull align 8 dereferenceable(952) %0, ptr noundef nonnull align 8 dereferenceable(32) %1) local_unnamed_addr #4 align 2 personality ptr @__gxx_personality_v0 {
  %3 = alloca %class.rational, align 8
  %4 = getelementptr inbounds nuw i8, ptr %0, i64 768
  %5 = load ptr, ptr @_ZN8rational13g_mpq_managerE, align 8, !tbaa !86
  %6 = getelementptr inbounds nuw i8, ptr %1, i64 4
  %7 = load i8, ptr %6, align 4
  %8 = and i8 %7, 1
  %9 = icmp eq i8 %8, 0
  br i1 %9, label %10, label %15

10:                                               ; preds = %2
  %11 = load i32, ptr %1, align 8, !tbaa !28
  store i32 %11, ptr %4, align 8, !tbaa !28
  %12 = getelementptr inbounds nuw i8, ptr %0, i64 772
  %13 = load i8, ptr %12, align 4
  %14 = and i8 %13, -2
  store i8 %14, ptr %12, align 4
  br label %_ZN11mpq_managerILb1EE3setER3mpzRKS1_.exit.i.i

15:                                               ; preds = %2
  tail call void @_ZN11mpz_managerILb1EE7big_setER3mpzRKS1_(ptr noundef nonnull align 8 dereferenceable(728) %5, ptr noundef nonnull align 8 dereferenceable(32) %4, ptr noundef nonnull align 8 dereferenceable(32) %1)
  br label %_ZN11mpq_managerILb1EE3setER3mpzRKS1_.exit.i.i

_ZN11mpq_managerILb1EE3setER3mpzRKS1_.exit.i.i:   ; preds = %15, %10
  %16 = getelementptr inbounds nuw i8, ptr %0, i64 784
  %17 = getelementptr inbounds nuw i8, ptr %1, i64 16
  %18 = getelementptr inbounds nuw i8, ptr %1, i64 20
  %19 = load i8, ptr %18, align 4
  %20 = and i8 %19, 1
  %21 = icmp eq i8 %20, 0
  br i1 %21, label %22, label %27

22:                                               ; preds = %_ZN11mpq_managerILb1EE3setER3mpzRKS1_.exit.i.i
  %23 = load i32, ptr %17, align 8, !tbaa !28
  store i32 %23, ptr %16, align 8, !tbaa !28
  %24 = getelementptr inbounds nuw i8, ptr %0, i64 788
  %25 = load i8, ptr %24, align 4
  %26 = and i8 %25, -2
  store i8 %26, ptr %24, align 4
  br label %_ZN8rationalaSERKS_.exit

27:                                               ; preds = %_ZN11mpq_managerILb1EE3setER3mpzRKS1_.exit.i.i
  tail call void @_ZN11mpz_managerILb1EE7big_setER3mpzRKS1_(ptr noundef nonnull align 8 dereferenceable(728) %5, ptr noundef nonnull align 8 dereferenceable(16) %16, ptr noundef nonnull align 8 dereferenceable(16) %17)
  br label %_ZN8rationalaSERKS_.exit

_ZN8rationalaSERKS_.exit:                         ; preds = %22, %27
  call void @llvm.lifetime.start.p0(i64 32, ptr nonnull %3) #25
  %28 = getelementptr inbounds nuw i8, ptr %0, i64 896
  call void @_ZmlRK8rationalS1_(ptr dead_on_unwind nonnull writable sret(%class.rational) align 8 %3, ptr noundef nonnull align 8 dereferenceable(32) %4, ptr noundef nonnull align 8 dereferenceable(32) %28)
  %29 = getelementptr inbounds nuw i8, ptr %0, i64 832
  %30 = getelementptr inbounds nuw i8, ptr %3, i64 4
  %31 = load i8, ptr %30, align 4
  %32 = and i8 %31, 1
  %33 = icmp eq i8 %32, 0
  br i1 %33, label %34, label %39

34:                                               ; preds = %_ZN8rationalaSERKS_.exit
  %35 = load i32, ptr %3, align 8, !tbaa !28
  store i32 %35, ptr %29, align 8, !tbaa !28
  %36 = getelementptr inbounds nuw i8, ptr %0, i64 836
  %37 = load i8, ptr %36, align 4
  %38 = and i8 %37, -2
  store i8 %38, ptr %36, align 4
  br label %_ZN15_scoped_numeralI11mpz_managerILb0EEEaSERK3mpz.exit

39:                                               ; preds = %_ZN8rationalaSERKS_.exit
  %40 = getelementptr inbounds nuw i8, ptr %0, i64 824
  %41 = load ptr, ptr %40, align 8, !tbaa !88
  invoke void @_ZN11mpz_managerILb0EE7big_setER3mpzRKS1_(ptr noundef nonnull align 8 dereferenceable(600) %41, ptr noundef nonnull align 8 dereferenceable(16) %29, ptr noundef nonnull align 8 dereferenceable(16) %3)
          to label %_ZN15_scoped_numeralI11mpz_managerILb0EEEaSERK3mpz.exit unwind label %47

_ZN15_scoped_numeralI11mpz_managerILb0EEEaSERK3mpz.exit: ; preds = %34, %39
  %42 = load ptr, ptr @_ZN8rational13g_mpq_managerE, align 8, !tbaa !86
  invoke void @_ZN11mpz_managerILb1EE3delEPS0_R3mpz(ptr noundef %42, ptr noundef nonnull align 8 dereferenceable(32) %3)
          to label %.noexc.i unwind label %44

.noexc.i:                                         ; preds = %_ZN15_scoped_numeralI11mpz_managerILb0EEEaSERK3mpz.exit
  %43 = getelementptr inbounds nuw i8, ptr %3, i64 16
  invoke void @_ZN11mpz_managerILb1EE3delEPS0_R3mpz(ptr noundef %42, ptr noundef nonnull align 8 dereferenceable(16) %43)
          to label %_ZN8rationalD2Ev.exit unwind label %44

44:                                               ; preds = %.noexc.i, %_ZN15_scoped_numeralI11mpz_managerILb0EEEaSERK3mpz.exit
  %45 = landingpad { ptr, i32 }
          catch ptr null
  %46 = extractvalue { ptr, i32 } %45, 0
  call void @__clang_call_terminate(ptr %46) #26
  unreachable

_ZN8rationalD2Ev.exit:                            ; preds = %.noexc.i
  call void @llvm.lifetime.end.p0(i64 32, ptr nonnull %3) #25
  ret void

47:                                               ; preds = %39
  %48 = landingpad { ptr, i32 }
          cleanup
  call void @_ZN8rationalD2Ev(ptr noundef nonnull align 8 dereferenceable(32) %3) #25
  call void @llvm.lifetime.end.p0(i64 32, ptr nonnull %3) #25
  resume { ptr, i32 } %48
}